target datalayout = "e-m:e-p270:32:32-p271:32:32-p272:64:64-i64:64-i128:128-f80:128-n8:16:32:64-S128"
target triple = "x86_64-pc-linux-gnu"

%struct.ossl_param_st = type { ptr, i32, ptr, i64, i64 }

@.str.53 = private unnamed_addr constant [31 x i8] c"../openssl/test/evp_kdf_test.c\00", align 1
@.str.67 = private unnamed_addr constant [2 x i8] c"0\00", align 1
@.str.73 = private unnamed_addr constant [7 x i8] c"digest\00", align 1
@.str.120 = private unnamed_addr constant [47 x i8] c"EVP_KDF_derive(kctx, out, sizeof(out), params)\00", align 1
@.str.125 = private unnamed_addr constant [41 x i8] c"kctx = get_kdfbyname(OSSL_KDF_NAME_HKDF)\00", align 1
@.str.126 = private unnamed_addr constant [5 x i8] c"HKDF\00", align 1

; Function Attrs: nounwind uwtable
define internal ptr @get_kdfbyname_libctx(ptr noundef %0, ptr noundef %1) #0 {
  %3 = alloca ptr, align 8
  %4 = alloca ptr, align 8
  %5 = alloca ptr, align 8
  %6 = alloca ptr, align 8
  store ptr %0, ptr %3, align 8, !tbaa !11
  store ptr %1, ptr %4, align 8, !tbaa !18
  call void @llvm.lifetime.start.p0(i64 8, ptr %5) #6
  %7 = load ptr, ptr %3, align 8, !tbaa !11
  %8 = load ptr, ptr %4, align 8, !tbaa !18
  %9 = call ptr @EVP_KDF_fetch(ptr noundef %7, ptr noundef %8, ptr noundef null)
  store ptr %9, ptr %5, align 8, !tbaa !26
  call void @llvm.lifetime.start.p0(i64 8, ptr %6) #6
  %10 = load ptr, ptr %5, align 8, !tbaa !26
  %11 = call ptr @EVP_KDF_CTX_new(ptr noundef %10)
  store ptr %11, ptr %6, align 8, !tbaa !8
  %12 = load ptr, ptr %5, align 8, !tbaa !26
  call void @EVP_KDF_free(ptr noundef %12)
  %13 = load ptr, ptr %6, align 8, !tbaa !8
  call void @llvm.lifetime.end.p0(i64 8, ptr %6) #6
  call void @llvm.lifetime.end.p0(i64 8, ptr %5) #6
  ret ptr %13
}

; Function Attrs: nounwind uwtable
define internal ptr @get_kdfbyname(ptr noundef %0) #0 {
  %2 = alloca ptr, align 8
  store ptr %0, ptr %2, align 8, !tbaa !18
  %3 = load ptr, ptr %2, align 8, !tbaa !18
  %4 = call ptr @get_kdfbyname_libctx(ptr noundef null, ptr noundef %3)
  ret ptr %4
}

; Function Attrs: nounwind uwtable
define internal i32 @test_kdf_hkdf_derive_set_params_fail() #0 {
  %1 = alloca i32, align 4
  %2 = alloca i32, align 4
  %3 = alloca ptr, align 8
  %4 = alloca [2 x %struct.ossl_param_st], align 16
  %5 = alloca [10 x i8], align 1
  %6 = alloca %struct.ossl_param_st, align 8
  %7 = alloca %struct.ossl_param_st, align 8
  call void @llvm.lifetime.start.p0(i64 4, ptr %1) #6
  store i32 0, ptr %1, align 4, !tbaa !4
  call void @llvm.lifetime.start.p0(i64 4, ptr %2) #6
  store i32 0, ptr %2, align 4, !tbaa !4
  call void @llvm.lifetime.start.p0(i64 8, ptr %3) #6
  store ptr null, ptr %3, align 8, !tbaa !8
  call void @llvm.lifetime.start.p0(i64 80, ptr %4) #6
  call void @llvm.lifetime.start.p0(i64 10, ptr %5) #6
  %8 = call ptr @get_kdfbyname(ptr noundef @.str.126)
  store ptr %8, ptr %3, align 8, !tbaa !8
  %9 = call i32 @test_ptr(ptr noundef @.str.53, i32 noundef 326, ptr noundef @.str.125, ptr noundef %8)
  %10 = icmp ne i32 %9, 0
  br i1 %10, label %12, label %11

11:                                               ; preds = %0
  br label %23

12:                                               ; preds = %0
  %13 = getelementptr inbounds [2 x %struct.ossl_param_st], ptr %4, i64 0, i64 0
  call void @llvm.lifetime.start.p0(i64 40, ptr %6) #6
  call void @OSSL_PARAM_construct_int(ptr dead_on_unwind writable sret(%struct.ossl_param_st) align 8 %6, ptr noundef @.str.73, ptr noundef %2)
  call void @llvm.memcpy.p0.p0.i64(ptr align 16 %13, ptr align 8 %6, i64 40, i1 false), !tbaa.struct !17
  call void @llvm.lifetime.end.p0(i64 40, ptr %6) #6
  %14 = getelementptr inbounds [2 x %struct.ossl_param_st], ptr %4, i64 0, i64 1
  call void @llvm.lifetime.start.p0(i64 40, ptr %7) #6
  call void @OSSL_PARAM_construct_end(ptr dead_on_unwind writable sret(%struct.ossl_param_st) align 8 %7)
  call void @llvm.memcpy.p0.p0.i64(ptr align 8 %14, ptr align 8 %7, i64 40, i1 false), !tbaa.struct !17
  call void @llvm.lifetime.end.p0(i64 40, ptr %7) #6
  %15 = load ptr, ptr %3, align 8, !tbaa !8
  %16 = getelementptr inbounds [10 x i8], ptr %5, i64 0, i64 0
  %17 = getelementptr inbounds [2 x %struct.ossl_param_st], ptr %4, i64 0, i64 0
  %18 = call i32 @EVP_KDF_derive(ptr noundef %15, ptr noundef %16, i64 noundef 10, ptr noundef %17)
  %19 = call i32 @test_int_eq(ptr noundef @.str.53, i32 noundef 334, ptr noundef @.str.120, ptr noundef @.str.67, i32 noundef %18, i32 noundef 0)
  %20 = icmp ne i32 %19, 0
  br i1 %20, label %22, label %21

21:                                               ; preds = %12
  br label %23

22:                                               ; preds = %12
  store i32 1, ptr %1, align 4, !tbaa !4
  br label %23

23:                                               ; preds = %22, %21, %11
  %24 = load ptr, ptr %3, align 8, !tbaa !8
  call void @EVP_KDF_CTX_free(ptr noundef %24)
  %25 = load i32, ptr %1, align 4, !tbaa !4
  call void @llvm.lifetime.end.p0(i64 10, ptr %5) #6
  call void @llvm.lifetime.end.p0(i64 80, ptr %4) #6
  call void @llvm.lifetime.end.p0(i64 8, ptr %3) #6
  call void @llvm.lifetime.end.p0(i64 4, ptr %2) #6
  call void @llvm.lifetime.end.p0(i64 4, ptr %1) #6
  ret i32 %25
}