; Function Attrs: nounwind uwtable
define internal range(i32 0, 2) i32 @test_kdf_hkdf_derive_set_params_fail() #0 {
  %1 = alloca i32, align 4
  %2 = alloca [2 x %struct.ossl_param_st], align 16
  %3 = alloca [10 x i8], align 1
  %4 = alloca %struct.ossl_param_st, align 8
  call void @llvm.lifetime.start.p0(i64 4, ptr nonnull %1) #6
  store i32 0, ptr %1, align 4, !tbaa !4
  call void @llvm.lifetime.start.p0(i64 80, ptr nonnull %2) #6
  call void @llvm.lifetime.start.p0(i64 10, ptr nonnull %3) #6
  %5 = tail call ptr @EVP_KDF_fetch(ptr noundef null, ptr noundef nonnull @.str.126, ptr noundef null) #6
  %6 = tail call ptr @EVP_KDF_CTX_new(ptr noundef %5) #6
  tail call void @EVP_KDF_free(ptr noundef %5) #6
  %7 = tail call i32 @test_ptr(ptr noundef nonnull @.str.53, i32 noundef 326, ptr noundef nonnull @.str.125, ptr noundef %6) #6
  %.not = icmp eq i32 %7, 0
  br i1 %.not, label %12, label %8

8:                                                ; preds = %0
  call void @OSSL_PARAM_construct_int(ptr dead_on_unwind nonnull writable sret(%struct.ossl_param_st) align 8 %2, ptr noundef nonnull @.str.73, ptr noundef nonnull %1) #6
  %9 = getelementptr inbounds nuw i8, ptr %2, i64 40
  call void @llvm.lifetime.start.p0(i64 40, ptr nonnull %4) #6
  call void @OSSL_PARAM_construct_end(ptr dead_on_unwind nonnull writable sret(%struct.ossl_param_st) align 8 %4) #6
  call void @llvm.memcpy.p0.p0.i64(ptr noundef nonnull align 8 dereferenceable(40) %9, ptr noundef nonnull align 8 dereferenceable(40) %4, i64 40, i1 false), !tbaa.struct !10
  call void @llvm.lifetime.end.p0(i64 40, ptr nonnull %4) #6
  %10 = call i32 @EVP_KDF_derive(ptr noundef %6, ptr noundef nonnull %3, i64 noundef 10, ptr noundef nonnull %2) #6
  %11 = call i32 @test_int_eq(ptr noundef nonnull @.str.53, i32 noundef 334, ptr noundef nonnull @.str.120, ptr noundef nonnull @.str.67, i32 noundef %10, i32 noundef 0) #6
  %.not2 = icmp ne i32 %11, 0
  %spec.select = zext i1 %.not2 to i32
  br label %12

12:                                               ; preds = %8, %0
  %.0 = phi i32 [ 0, %0 ], [ %spec.select, %8 ]
  call void @EVP_KDF_CTX_free(ptr noundef %6) #6
  call void @llvm.lifetime.end.p0(i64 10, ptr nonnull %3) #6
  call void @llvm.lifetime.end.p0(i64 80, ptr nonnull %2) #6
  call void @llvm.lifetime.end.p0(i64 4, ptr nonnull %1) #6
  ret i32 %.0
}